target datalayout = "e-m:e-p270:32:32-p271:32:32-p272:64:64-i64:64-i128:128-f80:128-n8:16:32:64-S128"
target triple = "x86_64-pc-linux-gnu"

%struct.stat = type { i64, i64, i64, i32, i32, i32, i32, i64, i64, i64, i64, %struct.timespec, %struct.timespec, %struct.timespec, [3 x i64] }
%struct.timespec = type { i64, i64 }

@.str.2 = private unnamed_addr constant [12 x i8] c"snapbuild.c\00", align 1
@.str.21 = private unnamed_addr constant [21 x i8] c"pg_logical/snapshots\00", align 1
@.str.34 = private unnamed_addr constant [14 x i8] c"%s/%X-%X.snap\00", align 1
@.str.35 = private unnamed_addr constant [29 x i8] c"could not stat file \22%s\22: %m\00", align 1
@__func__.SnapBuildSnapshotExists = private unnamed_addr constant [24 x i8] c"SnapBuildSnapshotExists\00", align 1

; Function Attrs: nounwind uwtable
define dso_local zeroext i1 @SnapBuildSnapshotExists(i64 noundef %0) #0 {
  %2 = alloca i64, align 8
  %3 = alloca [1024 x i8], align 16
  %4 = alloca i32, align 4
  %5 = alloca %struct.stat, align 8
  %6 = alloca i32, align 4
  store i64 %0, ptr %2, align 8
  call void @llvm.lifetime.start.p0(i64 1024, ptr %3) #9
  call void @llvm.lifetime.start.p0(i64 4, ptr %4) #9
  call void @llvm.lifetime.start.p0(i64 144, ptr %5) #9
  %7 = getelementptr inbounds [1024 x i8], ptr %3, i64 0, i64 0
  br label %8

8:                                                ; preds = %1
  br label %9

9:                                                ; preds = %8
  br label %10

10:                                               ; preds = %9
  store i32 1, ptr %6, align 4
  %11 = load i64, ptr %2, align 8
  %12 = lshr i64 %11, 32
  %13 = trunc i64 %12 to i32
  %14 = load i64, ptr %2, align 8
  %15 = trunc i64 %14 to i32
  %16 = call i32 (ptr, ptr, ...) @pg_sprintf(ptr noundef %7, ptr noundef @.str.34, ptr noundef @.str.21, i32 noundef %13, i32 noundef %15)
  %17 = getelementptr inbounds [1024 x i8], ptr %3, i64 0, i64 0
  %18 = call i32 @stat(ptr noundef %17, ptr noundef %5) #9
  store i32 %18, ptr %4, align 4
  %19 = load i32, ptr %4, align 4
  %20 = icmp ne i32 %19, 0
  br i1 %20, label %21, label %38

21:                                               ; preds = %10
  %22 = call ptr @__errno_location() #11
  %23 = load i32, ptr %22, align 4
  %24 = icmp ne i32 %23, 2
  br i1 %24, label %25, label %38

25:                                               ; preds = %21
  br label %26

26:                                               ; preds = %25
  br i1 true, label %27, label %29

27:                                               ; preds = %26
  %28 = call zeroext i1 @errstart_cold(i32 noundef 21, ptr noundef null) #10
  br i1 %28, label %31, label %35

29:                                               ; preds = %26
  %30 = call zeroext i1 @errstart(i32 noundef 21, ptr noundef null)
  br i1 %30, label %31, label %35

31:                                               ; preds = %29, %27
  %32 = call i32 @errcode_for_file_access()
  %33 = getelementptr inbounds [1024 x i8], ptr %3, i64 0, i64 0
  %34 = call i32 (ptr, ...) @errmsg(ptr noundef @.str.35, ptr noundef %33)
  call void @errfinish(ptr noundef @.str.2, i32 noundef 2025, ptr noundef @__func__.SnapBuildSnapshotExists)
  br label %35

35:                                               ; preds = %31, %29, %27
  unreachable

36:                                               ; No predecessors!
  br label %37

37:                                               ; preds = %36
  br label %38

38:                                               ; preds = %37, %21, %10
  %39 = load i32, ptr %4, align 4
  %40 = icmp eq i32 %39, 0
  call void @llvm.lifetime.end.p0(i64 144, ptr %5) #9
  call void @llvm.lifetime.end.p0(i64 4, ptr %4) #9
  call void @llvm.lifetime.end.p0(i64 1024, ptr %3) #9
  ret i1 %40
}