; Function Attrs: nounwind uwtable
define dso_local noundef zeroext i1 @SnapBuildSnapshotExists(i64 noundef %0) local_unnamed_addr #0 {
  %2 = alloca [1024 x i8], align 16
  %3 = alloca %struct.stat, align 8
  call void @llvm.lifetime.start.p0(i64 1024, ptr nonnull %2) #14
  call void @llvm.lifetime.start.p0(i64 144, ptr nonnull %3) #14
  %4 = lshr i64 %0, 32
  %5 = trunc nuw i64 %4 to i32
  %6 = trunc i64 %0 to i32
  %7 = call i32 (ptr, ptr, ...) @pg_sprintf(ptr noundef nonnull %2, ptr noundef nonnull @.str.34, ptr noundef nonnull @.str.21, i32 noundef %5, i32 noundef %6) #14
  %8 = call i32 @stat(ptr noundef nonnull %2, ptr noundef nonnull %3) #14
  %.not = icmp eq i32 %8, 0
  br i1 %.not, label %16, label %9

9:                                                ; preds = %1
  %10 = tail call ptr @__errno_location() #16
  %11 = load i32, ptr %10, align 4
  %.not4 = icmp eq i32 %11, 2
  br i1 %.not4, label %16, label %12

12:                                               ; preds = %9
  %13 = call zeroext i1 @errstart_cold(i32 noundef 21, ptr noundef null) #15
  call void @llvm.assume(i1 %13)
  %14 = call i32 @errcode_for_file_access() #14
  %15 = call i32 (ptr, ...) @errmsg(ptr noundef nonnull @.str.35, ptr noundef nonnull %2) #14
  call void @errfinish(ptr noundef nonnull @.str.2, i32 noundef 2025, ptr noundef nonnull @__func__.SnapBuildSnapshotExists) #14
  unreachable

16:                                               ; preds = %9, %1
  call void @llvm.lifetime.end.p0(i64 144, ptr nonnull %3) #14
  call void @llvm.lifetime.end.p0(i64 1024, ptr nonnull %2) #14
  ret i1 %.not
}